; Function Attrs: mustprogress uwtable
define internal fastcc void @"_ZNO8pybind116detail15argument_loaderIJEE4callINS_3strENS0_9void_typeERZ22test_submodule_pytypesRNS_7module_EE4$_43EENSt9enable_ifIXntsr3std7is_voidIT_EE5valueESB_E4typeEOT1_"(ptr dead_on_unwind noalias writable align 8 %0) unnamed_addr #1 align 2 personality ptr @__gxx_personality_v0 {
  %2 = alloca %"class.pybind11::bytes", align 8
  call void @llvm.lifetime.start.p0(i64 8, ptr nonnull %2), !noalias !2926
  %3 = tail call ptr @PyBytes_FromStringAndSize(ptr noundef nonnull @.str.291, i64 noundef 3), !noalias !2929
  store ptr %3, ptr %2, align 8, !noalias !2929
  %.not.i.i.i = icmp eq ptr %3, null
  br i1 %.not.i.i.i, label %4, label %_ZN8pybind115bytesC2IiTnNSt9enable_ifIXsr3std11is_integralIT_EE5valueEiE4typeELi0EEEPKcRKS3_.exit.i.i

4:                                                ; preds = %1
  invoke void @_ZN8pybind1113pybind11_failEPKc(ptr noundef nonnull @.str.292) #30
          to label %5 unwind label %6, !noalias !2929

5:                                                ; preds = %4
  unreachable

common.resume.i.i:                                ; preds = %17, %6
  %common.resume.op.i.i = phi { ptr, i32 } [ %7, %6 ], [ %18, %17 ]
  resume { ptr, i32 } %common.resume.op.i.i

6:                                                ; preds = %4
  %7 = landingpad { ptr, i32 }
          cleanup
  call void @_ZN8pybind116objectD2Ev(ptr noundef nonnull align 8 dereferenceable(8) %2) #25, !noalias !2929
  br label %common.resume.i.i

_ZN8pybind115bytesC2IiTnNSt9enable_ifIXsr3std11is_integralIT_EE5valueEiE4typeELi0EEEPKcRKS3_.exit.i.i: ; preds = %1
  invoke void @_ZN8pybind113strC2ERKNS_5bytesE(ptr noundef nonnull align 8 dereferenceable(8) %0, ptr noundef nonnull align 8 dereferenceable(8) %2)
          to label %8 unwind label %17

8:                                                ; preds = %_ZN8pybind115bytesC2IiTnNSt9enable_ifIXsr3std11is_integralIT_EE5valueEiE4typeELi0EEEPKcRKS3_.exit.i.i
  %9 = load ptr, ptr %2, align 8, !noalias !2929
  %.not.i.i.i.i.i.i = icmp eq ptr %9, null
  br i1 %.not.i.i.i.i.i.i, label %"_ZNO8pybind116detail15argument_loaderIJEE9call_implINS_3strERZ22test_submodule_pytypesRNS_7module_EE4$_43TpTnmJENS0_9void_typeEEET_OT0_St16integer_sequenceImJXspT1_EEEOT2_.exit", label %10

10:                                               ; preds = %8
  %11 = load i64, ptr %9, align 8
  %12 = add nsw i64 %11, -1
  store i64 %12, ptr %9, align 8
  %.not.i.i.i.i.i.i.i = icmp eq i64 %12, 0
  br i1 %.not.i.i.i.i.i.i.i, label %13, label %"_ZNO8pybind116detail15argument_loaderIJEE9call_implINS_3strERZ22test_submodule_pytypesRNS_7module_EE4$_43TpTnmJENS0_9void_typeEEET_OT0_St16integer_sequenceImJXspT1_EEEOT2_.exit"

13:                                               ; preds = %10
  invoke void @_Py_Dealloc(ptr noundef nonnull %9)
          to label %"_ZNO8pybind116detail15argument_loaderIJEE9call_implINS_3strERZ22test_submodule_pytypesRNS_7module_EE4$_43TpTnmJENS0_9void_typeEEET_OT0_St16integer_sequenceImJXspT1_EEEOT2_.exit" unwind label %14

14:                                               ; preds = %13
  %15 = landingpad { ptr, i32 }
          catch ptr null
  %16 = extractvalue { ptr, i32 } %15, 0
  call void @__clang_call_terminate(ptr %16) #26
  unreachable

17:                                               ; preds = %_ZN8pybind115bytesC2IiTnNSt9enable_ifIXsr3std11is_integralIT_EE5valueEiE4typeELi0EEEPKcRKS3_.exit.i.i
  %18 = landingpad { ptr, i32 }
          cleanup
  call void @_ZN8pybind115bytesD2Ev(ptr noundef nonnull align 8 dereferenceable(8) %2) #25
  br label %common.resume.i.i

"_ZNO8pybind116detail15argument_loaderIJEE9call_implINS_3strERZ22test_submodule_pytypesRNS_7module_EE4$_43TpTnmJENS0_9void_typeEEET_OT0_St16integer_sequenceImJXspT1_EEEOT2_.exit": ; preds = %8, %10, %13
  call void @llvm.lifetime.end.p0(i64 8, ptr nonnull %2), !noalias !2926
  ret void
}